; Function Attrs: nounwind uwtable
define nonnull ptr @l_List_beq___at_Lean_MacroScopesView_isPrefixOf___spec__1___boxed(ptr noundef %0, ptr noundef %1) local_unnamed_addr #2 {
  br label %.backedge.i

.backedge.i:                                      ; preds = %.backedge.i.backedge, %2
  %.020.i = phi ptr [ %1, %2 ], [ %39, %.backedge.i.backedge ]
  %.018.i = phi ptr [ %0, %2 ], [ %35, %.backedge.i.backedge ]
  %3 = ptrtoint ptr %.018.i to i64
  %4 = and i64 %3, 1
  %.not.i.i = icmp eq i64 %4, 0
  br i1 %.not.i.i, label %8, label %5

5:                                                ; preds = %.backedge.i
  %6 = lshr i64 %3, 1
  %7 = trunc i64 %6 to i32
  br label %lean_obj_tag.exit.i

8:                                                ; preds = %.backedge.i
  %9 = getelementptr i8, ptr %.018.i, i64 4
  %.val.i.i = load i32, ptr %9, align 4
  %10 = lshr i32 %.val.i.i, 24
  br label %lean_obj_tag.exit.i

lean_obj_tag.exit.i:                              ; preds = %8, %5
  %.0.i23.i = phi i32 [ %7, %5 ], [ %10, %8 ]
  %11 = icmp eq i32 %.0.i23.i, 0
  %12 = ptrtoint ptr %.020.i to i64
  %13 = and i64 %12, 1
  %.not.i24.i = icmp eq i64 %13, 0
  br i1 %11, label %14, label %23

14:                                               ; preds = %lean_obj_tag.exit.i
  br i1 %.not.i24.i, label %18, label %15

15:                                               ; preds = %14
  %16 = lshr i64 %12, 1
  %17 = trunc i64 %16 to i32
  br label %lean_obj_tag.exit27.i

18:                                               ; preds = %14
  %19 = getelementptr i8, ptr %.020.i, i64 4
  %.val.i26.i = load i32, ptr %19, align 4
  %20 = lshr i32 %.val.i26.i, 24
  br label %lean_obj_tag.exit27.i

lean_obj_tag.exit27.i:                            ; preds = %18, %15
  %.0.i25.i = phi i32 [ %17, %15 ], [ %20, %18 ]
  %21 = icmp eq i32 %.0.i25.i, 0
  %22 = select i1 %21, i64 3, i64 1
  br label %l_List_beq___at_Lean_MacroScopesView_isPrefixOf___spec__1.exit

23:                                               ; preds = %lean_obj_tag.exit.i
  br i1 %.not.i24.i, label %27, label %24

24:                                               ; preds = %23
  %25 = lshr i64 %12, 1
  %26 = trunc i64 %25 to i32
  br label %lean_obj_tag.exit31.i

27:                                               ; preds = %23
  %28 = getelementptr i8, ptr %.020.i, i64 4
  %.val.i30.i = load i32, ptr %28, align 4
  %29 = lshr i32 %.val.i30.i, 24
  br label %lean_obj_tag.exit31.i

lean_obj_tag.exit31.i:                            ; preds = %27, %24
  %.0.i29.i = phi i32 [ %26, %24 ], [ %29, %27 ]
  %30 = icmp eq i32 %.0.i29.i, 0
  br i1 %30, label %l_List_beq___at_Lean_MacroScopesView_isPrefixOf___spec__1.exit, label %31

31:                                               ; preds = %lean_obj_tag.exit31.i
  %32 = getelementptr inbounds nuw i8, ptr %.018.i, i64 8
  %33 = load ptr, ptr %32, align 8, !tbaa !9
  %34 = getelementptr inbounds nuw i8, ptr %.018.i, i64 16
  %35 = load ptr, ptr %34, align 8, !tbaa !9
  %36 = getelementptr inbounds nuw i8, ptr %.020.i, i64 8
  %37 = load ptr, ptr %36, align 8, !tbaa !9
  %38 = getelementptr inbounds nuw i8, ptr %.020.i, i64 16
  %39 = load ptr, ptr %38, align 8, !tbaa !9
  %40 = ptrtoint ptr %33 to i64
  %41 = and i64 %40, 1
  %42 = icmp ne i64 %41, 0
  %43 = ptrtoint ptr %37 to i64
  %44 = and i64 %43, 1
  %45 = icmp ne i64 %44, 0
  %or.cond.i = select i1 %42, i1 %45, i1 false
  br i1 %or.cond.i, label %46, label %lean_nat_eq.exit.i, !prof !18

46:                                               ; preds = %31
  %47 = icmp eq ptr %33, %37
  br i1 %47, label %.backedge.i.backedge, label %l_List_beq___at_Lean_MacroScopesView_isPrefixOf___spec__1.exit

lean_nat_eq.exit.i:                               ; preds = %31
  %48 = tail call zeroext i1 @lean_nat_big_eq(ptr noundef %33, ptr noundef %37) #6
  br i1 %48, label %.backedge.i.backedge, label %l_List_beq___at_Lean_MacroScopesView_isPrefixOf___spec__1.exit

.backedge.i.backedge:                             ; preds = %lean_nat_eq.exit.i, %46
  br label %.backedge.i

l_List_beq___at_Lean_MacroScopesView_isPrefixOf___spec__1.exit: ; preds = %lean_obj_tag.exit31.i, %46, %lean_nat_eq.exit.i, %lean_obj_tag.exit27.i
  %.1.i = phi i64 [ %22, %lean_obj_tag.exit27.i ], [ 1, %lean_nat_eq.exit.i ], [ 1, %46 ], [ 1, %lean_obj_tag.exit31.i ]
  %49 = ptrtoint ptr %1 to i64
  %50 = and i64 %49, 1
  %.not = icmp eq i64 %50, 0
  br i1 %.not, label %51, label %lean_dec.exit5

51:                                               ; preds = %l_List_beq___at_Lean_MacroScopesView_isPrefixOf___spec__1.exit
  %52 = load i32, ptr %1, align 4, !tbaa !4
  %53 = icmp sgt i32 %52, 1
  br i1 %53, label %54, label %56, !prof !11

54:                                               ; preds = %51
  %55 = add nsw i32 %52, -1
  store i32 %55, ptr %1, align 4, !tbaa !4
  br label %lean_dec.exit5

56:                                               ; preds = %51
  %.not.i = icmp eq i32 %52, 0
  br i1 %.not.i, label %lean_dec.exit5, label %57

57:                                               ; preds = %56
  tail call void @lean_dec_ref_cold(ptr noundef nonnull %1) #6
  br label %lean_dec.exit5

lean_dec.exit5:                                   ; preds = %57, %56, %54, %l_List_beq___at_Lean_MacroScopesView_isPrefixOf___spec__1.exit
  %58 = ptrtoint ptr %0 to i64
  %59 = and i64 %58, 1
  %.not8 = icmp eq i64 %59, 0
  br i1 %.not8, label %60, label %lean_dec.exit

60:                                               ; preds = %lean_dec.exit5
  %61 = load i32, ptr %0, align 4, !tbaa !4
  %62 = icmp sgt i32 %61, 1
  br i1 %62, label %63, label %65, !prof !11

63:                                               ; preds = %60
  %64 = add nsw i32 %61, -1
  store i32 %64, ptr %0, align 4, !tbaa !4
  br label %lean_dec.exit

65:                                               ; preds = %60
  %.not.i6 = icmp eq i32 %61, 0
  br i1 %.not.i6, label %lean_dec.exit, label %66

66:                                               ; preds = %65
  tail call void @lean_dec_ref_cold(ptr noundef nonnull %0) #6
  br label %lean_dec.exit

lean_dec.exit:                                    ; preds = %66, %65, %63, %lean_dec.exit5
  %67 = inttoptr i64 %.1.i to ptr
  ret ptr %67
}